target datalayout = "e-m:e-p270:32:32-p271:32:32-p272:64:64-i64:64-i128:128-f80:128-n8:16:32:64-S128"
target triple = "x86_64-pc-linux-gnu"

%struct.dt_iop_lut3d_gui_data_t = type { ptr, ptr, ptr, ptr, ptr, ptr, ptr, i64 }

; Function Attrs: nounwind uwtable
define hidden void @lut3d_clear_lutname_list(ptr noundef %0) #0 {
  %2 = alloca ptr, align 8
  %3 = alloca ptr, align 8
  %4 = alloca ptr, align 8
  %5 = alloca ptr, align 8
  %6 = alloca ptr, align 8
  store ptr %0, ptr %2, align 8, !tbaa !15
  call void @llvm.lifetime.start.p0(i64 8, ptr %3) #13
  %7 = load ptr, ptr %2, align 8, !tbaa !15
  store ptr %7, ptr %3, align 8, !tbaa !166
  call void @llvm.lifetime.start.p0(i64 8, ptr %4) #13
  %8 = load ptr, ptr %3, align 8, !tbaa !166
  %9 = getelementptr inbounds nuw %struct.dt_iop_lut3d_gui_data_t, ptr %8, i32 0, i32 5
  %10 = load ptr, ptr %9, align 8, !tbaa !168
  %11 = call ptr @gtk_tree_view_get_model(ptr noundef %10)
  store ptr %11, ptr %4, align 8, !tbaa !170
  call void @llvm.lifetime.start.p0(i64 8, ptr %5) #13
  %12 = load ptr, ptr %4, align 8, !tbaa !170
  %13 = call i64 @gtk_tree_model_filter_get_type() #16
  %14 = call ptr @g_type_check_instance_cast(ptr noundef %12, i64 noundef %13)
  %15 = call ptr @gtk_tree_model_filter_get_model(ptr noundef %14)
  store ptr %15, ptr %5, align 8, !tbaa !170
  call void @llvm.lifetime.start.p0(i64 8, ptr %6) #13
  %16 = load ptr, ptr %3, align 8, !tbaa !166
  %17 = getelementptr inbounds nuw %struct.dt_iop_lut3d_gui_data_t, ptr %16, i32 0, i32 5
  %18 = load ptr, ptr %17, align 8, !tbaa !168
  %19 = call ptr @gtk_tree_view_get_selection(ptr noundef %18)
  store ptr %19, ptr %6, align 8, !tbaa !172
  %20 = load ptr, ptr %6, align 8, !tbaa !172
  %21 = call ptr @g_type_check_instance_cast(ptr noundef %20, i64 noundef 80)
  %22 = load ptr, ptr %3, align 8, !tbaa !166
  %23 = getelementptr inbounds nuw %struct.dt_iop_lut3d_gui_data_t, ptr %22, i32 0, i32 7
  %24 = load i64, ptr %23, align 8, !tbaa !174
  call void @g_signal_handler_block(ptr noundef %21, i64 noundef %24)
  %25 = load ptr, ptr %5, align 8, !tbaa !170
  call void @gtk_list_store_clear(ptr noundef %25)
  %26 = load ptr, ptr %6, align 8, !tbaa !172
  %27 = call ptr @g_type_check_instance_cast(ptr noundef %26, i64 noundef 80)
  %28 = load ptr, ptr %3, align 8, !tbaa !166
  %29 = getelementptr inbounds nuw %struct.dt_iop_lut3d_gui_data_t, ptr %28, i32 0, i32 7
  %30 = load i64, ptr %29, align 8, !tbaa !174
  call void @g_signal_handler_unblock(ptr noundef %27, i64 noundef %30)
  call void @llvm.lifetime.end.p0(i64 8, ptr %6) #13
  call void @llvm.lifetime.end.p0(i64 8, ptr %5) #13
  call void @llvm.lifetime.end.p0(i64 8, ptr %4) #13
  call void @llvm.lifetime.end.p0(i64 8, ptr %3) #13
  ret void
}