; Function Attrs: nounwind uwtable
define hidden void @lut3d_clear_lutname_list(ptr noundef readonly captures(none) %0) local_unnamed_addr #1 {
  %2 = getelementptr inbounds nuw i8, ptr %0, i64 40
  %3 = load ptr, ptr %2, align 8, !tbaa !133
  %4 = tail call ptr @gtk_tree_view_get_model(ptr noundef %3) #25
  %5 = tail call i64 @gtk_tree_model_filter_get_type() #28
  %6 = tail call ptr @g_type_check_instance_cast(ptr noundef %4, i64 noundef %5) #25
  %7 = tail call ptr @gtk_tree_model_filter_get_model(ptr noundef %6) #25
  %8 = load ptr, ptr %2, align 8, !tbaa !133
  %9 = tail call ptr @gtk_tree_view_get_selection(ptr noundef %8) #25
  %10 = tail call ptr @g_type_check_instance_cast(ptr noundef %9, i64 noundef 80) #25
  %11 = getelementptr inbounds nuw i8, ptr %0, i64 56
  %12 = load i64, ptr %11, align 8, !tbaa !135
  tail call void @g_signal_handler_block(ptr noundef %10, i64 noundef %12) #25
  tail call void @gtk_list_store_clear(ptr noundef %7) #25
  %13 = tail call ptr @g_type_check_instance_cast(ptr noundef %9, i64 noundef 80) #25
  %14 = load i64, ptr %11, align 8, !tbaa !135
  tail call void @g_signal_handler_unblock(ptr noundef %13, i64 noundef %14) #25
  ret void
}